target datalayout = "e-m:e-p270:32:32-p271:32:32-p272:64:64-i64:64-i128:128-f80:128-n8:16:32:64-S128"
target triple = "x86_64-pc-linux-gnu"

%union.pthread_attr_t = type { i64, [48 x i8] }

@watch_node_thread_id = internal global i64 0, align 8
@acct_shutdown = internal global i8 1, align 1
@.str.12 = private unnamed_addr constant [26 x i8] c"%s: poll already started!\00", align 1
@__func__.acct_gather_interconnect_startpoll = private unnamed_addr constant [35 x i8] c"acct_gather_interconnect_startpoll\00", align 1
@freq = internal global i32 0, align 4
@.str.13 = private unnamed_addr constant [29 x i8] c"%s: dynamic logging disabled\00", align 1
@.str.14 = private unnamed_addr constant [22 x i8] c"pthread_attr_init: %m\00", align 1
@.str.15 = private unnamed_addr constant [26 x i8] c"pthread_attr_setscope: %m\00", align 1
@.str.16 = private unnamed_addr constant [30 x i8] c"pthread_attr_setstacksize: %m\00", align 1
@.str.17 = private unnamed_addr constant [28 x i8] c"%s: pthread_create error %m\00", align 1
@.str.18 = private unnamed_addr constant [55 x i8] c"pthread_attr_destroy failed, possible memory leak!: %m\00", align 1
@.str.19 = private unnamed_addr constant [28 x i8] c"%s: dynamic logging enabled\00", align 1

; Function Attrs: nounwind uwtable
define dso_local i32 @acct_gather_interconnect_startpoll(i32 noundef %0) #0 {
  %2 = alloca i32, align 4
  %3 = alloca i32, align 4
  %4 = alloca i32, align 4
  %5 = alloca i32, align 4
  %6 = alloca %union.pthread_attr_t, align 8
  %7 = alloca i32, align 4
  %8 = alloca i32, align 4
  %9 = alloca i32, align 4
  store i32 %0, ptr %3, align 4
  call void @llvm.lifetime.start.p0(i64 4, ptr %4) #6
  store i32 0, ptr %4, align 4
  %10 = load i8, ptr @acct_shutdown, align 1, !range !11, !noundef !12
  %11 = trunc i8 %10 to i1
  br i1 %11, label %15, label %12

12:                                               ; preds = %1
  %13 = call i32 (ptr, ...) @error(ptr noundef @.str.12, ptr noundef @__func__.acct_gather_interconnect_startpoll)
  %14 = load i32, ptr %4, align 4
  store i32 %14, ptr %2, align 4
  store i32 1, ptr %5, align 4
  br label %90

15:                                               ; preds = %1
  store i8 0, ptr @acct_shutdown, align 1
  %16 = load i32, ptr %3, align 4
  store i32 %16, ptr @freq, align 4
  %17 = load i32, ptr %3, align 4
  %18 = icmp eq i32 %17, 0
  br i1 %18, label %19, label %31

19:                                               ; preds = %15
  br label %20

20:                                               ; preds = %19
  br label %21

21:                                               ; preds = %20
  %22 = call i32 @get_log_level()
  %23 = icmp sge i32 %22, 6
  br i1 %23, label %24, label %25

24:                                               ; preds = %21
  call void (i32, ptr, ...) @log_var(i32 noundef 6, ptr noundef @.str.13, ptr noundef @__func__.acct_gather_interconnect_startpoll)
  br label %25

25:                                               ; preds = %24, %21
  br label %26

26:                                               ; preds = %25
  br label %27

27:                                               ; preds = %26
  br label %28

28:                                               ; preds = %27
  br label %29

29:                                               ; preds = %28
  %30 = load i32, ptr %4, align 4
  store i32 %30, ptr %2, align 4
  store i32 1, ptr %5, align 4
  br label %90

31:                                               ; preds = %15
  br label %32

32:                                               ; preds = %31
  call void @llvm.lifetime.start.p0(i64 56, ptr %6) #6
  call void @llvm.lifetime.start.p0(i64 4, ptr %7) #6
  br label %33

33:                                               ; preds = %32
  call void @llvm.lifetime.start.p0(i64 4, ptr %8) #6
  %34 = call i32 @pthread_attr_init(ptr noundef %6) #6
  store i32 %34, ptr %8, align 4
  %35 = load i32, ptr %8, align 4
  %36 = icmp ne i32 %35, 0
  br i1 %36, label %37, label %40

37:                                               ; preds = %33
  %38 = load i32, ptr %8, align 4
  %39 = call ptr @__errno_location() #7
  store i32 %38, ptr %39, align 4
  call void (ptr, ...) @fatal(ptr noundef @.str.14) #8
  unreachable

40:                                               ; preds = %33
  %41 = call i32 @pthread_attr_setscope(ptr noundef %6, i32 noundef 0) #6
  store i32 %41, ptr %8, align 4
  %42 = load i32, ptr %8, align 4
  %43 = icmp ne i32 %42, 0
  br i1 %43, label %44, label %48

44:                                               ; preds = %40
  %45 = load i32, ptr %8, align 4
  %46 = call ptr @__errno_location() #7
  store i32 %45, ptr %46, align 4
  %47 = call i32 (ptr, ...) @error(ptr noundef @.str.15)
  br label %48

48:                                               ; preds = %44, %40
  %49 = call i32 @pthread_attr_setstacksize(ptr noundef %6, i64 noundef 1048576) #6
  store i32 %49, ptr %8, align 4
  %50 = load i32, ptr %8, align 4
  %51 = icmp ne i32 %50, 0
  br i1 %51, label %52, label %56

52:                                               ; preds = %48
  %53 = load i32, ptr %8, align 4
  %54 = call ptr @__errno_location() #7
  store i32 %53, ptr %54, align 4
  %55 = call i32 (ptr, ...) @error(ptr noundef @.str.16)
  br label %56

56:                                               ; preds = %52, %48
  call void @llvm.lifetime.end.p0(i64 4, ptr %8) #6
  br label %57

57:                                               ; preds = %56
  br label %58

58:                                               ; preds = %57
  %59 = call i32 @pthread_create(ptr noundef @watch_node_thread_id, ptr noundef %6, ptr noundef @_watch_node, ptr noundef null) #6
  store i32 %59, ptr %7, align 4
  %60 = load i32, ptr %7, align 4
  %61 = icmp ne i32 %60, 0
  br i1 %61, label %62, label %65

62:                                               ; preds = %58
  %63 = load i32, ptr %7, align 4
  %64 = call ptr @__errno_location() #7
  store i32 %63, ptr %64, align 4
  call void (ptr, ...) @fatal(ptr noundef @.str.17, ptr noundef @__func__.acct_gather_interconnect_startpoll) #8
  unreachable

65:                                               ; preds = %58
  br label %66

66:                                               ; preds = %65
  call void @llvm.lifetime.start.p0(i64 4, ptr %9) #6
  %67 = call i32 @pthread_attr_destroy(ptr noundef %6) #6
  store i32 %67, ptr %9, align 4
  %68 = load i32, ptr %9, align 4
  %69 = icmp ne i32 %68, 0
  br i1 %69, label %70, label %74

70:                                               ; preds = %66
  %71 = load i32, ptr %9, align 4
  %72 = call ptr @__errno_location() #7
  store i32 %71, ptr %72, align 4
  %73 = call i32 (ptr, ...) @error(ptr noundef @.str.18)
  br label %74

74:                                               ; preds = %70, %66
  call void @llvm.lifetime.end.p0(i64 4, ptr %9) #6
  br label %75

75:                                               ; preds = %74
  br label %76

76:                                               ; preds = %75
  call void @llvm.lifetime.end.p0(i64 4, ptr %7) #6
  call void @llvm.lifetime.end.p0(i64 56, ptr %6) #6
  br label %77

77:                                               ; preds = %76
  br label %78

78:                                               ; preds = %77
  br label %79

79:                                               ; preds = %78
  br label %80

80:                                               ; preds = %79
  %81 = call i32 @get_log_level()
  %82 = icmp sge i32 %81, 7
  br i1 %82, label %83, label %84

83:                                               ; preds = %80
  call void (i32, ptr, ...) @log_var(i32 noundef 7, ptr noundef @.str.19, ptr noundef @__func__.acct_gather_interconnect_startpoll)
  br label %84

84:                                               ; preds = %83, %80
  br label %85

85:                                               ; preds = %84
  br label %86

86:                                               ; preds = %85
  br label %87

87:                                               ; preds = %86
  br label %88

88:                                               ; preds = %87
  %89 = load i32, ptr %4, align 4
  store i32 %89, ptr %2, align 4
  store i32 1, ptr %5, align 4
  br label %90

90:                                               ; preds = %88, %29, %12
  call void @llvm.lifetime.end.p0(i64 4, ptr %4) #6
  %91 = load i32, ptr %2, align 4
  ret i32 %91
}