; Function Attrs: nounwind uwtable
define dso_local noundef i32 @acct_gather_interconnect_startpoll(i32 noundef %0) local_unnamed_addr #0 {
  %2 = alloca %union.pthread_attr_t, align 8
  %.b = load i1, ptr @acct_shutdown, align 1
  br i1 %.b, label %3, label %5

3:                                                ; preds = %1
  %4 = tail call i32 (ptr, ...) @error(ptr noundef nonnull @.str.12, ptr noundef nonnull @__func__.acct_gather_interconnect_startpoll) #7
  br label %38

5:                                                ; preds = %1
  store i1 true, ptr @acct_shutdown, align 1
  %6 = icmp eq i32 %0, 0
  br i1 %6, label %7, label %11

7:                                                ; preds = %5
  %8 = tail call i32 @get_log_level() #7
  %9 = icmp sgt i32 %8, 5
  br i1 %9, label %10, label %38

10:                                               ; preds = %7
  tail call void (i32, ptr, ...) @log_var(i32 noundef 6, ptr noundef nonnull @.str.13, ptr noundef nonnull @__func__.acct_gather_interconnect_startpoll) #7
  br label %38

11:                                               ; preds = %5
  call void @llvm.lifetime.start.p0(i64 56, ptr nonnull %2) #7
  %12 = call i32 @pthread_attr_init(ptr noundef nonnull %2) #7
  %.not = icmp eq i32 %12, 0
  br i1 %.not, label %15, label %13

13:                                               ; preds = %11
  %14 = tail call ptr @__errno_location() #8
  store i32 %12, ptr %14, align 4
  call void (ptr, ...) @fatal(ptr noundef nonnull @.str.14) #9
  unreachable

15:                                               ; preds = %11
  %16 = call i32 @pthread_attr_setscope(ptr noundef nonnull %2, i32 noundef 0) #7
  %.not20 = icmp eq i32 %16, 0
  br i1 %.not20, label %20, label %17

17:                                               ; preds = %15
  %18 = tail call ptr @__errno_location() #8
  store i32 %16, ptr %18, align 4
  %19 = call i32 (ptr, ...) @error(ptr noundef nonnull @.str.15) #7
  br label %20

20:                                               ; preds = %17, %15
  %21 = call i32 @pthread_attr_setstacksize(ptr noundef nonnull %2, i64 noundef 1048576) #7
  %.not21 = icmp eq i32 %21, 0
  br i1 %.not21, label %25, label %22

22:                                               ; preds = %20
  %23 = tail call ptr @__errno_location() #8
  store i32 %21, ptr %23, align 4
  %24 = call i32 (ptr, ...) @error(ptr noundef nonnull @.str.16) #7
  br label %25

25:                                               ; preds = %22, %20
  %26 = call i32 @pthread_create(ptr noundef nonnull @watch_node_thread_id, ptr noundef nonnull %2, ptr noundef nonnull @_watch_node, ptr noundef null) #7
  %.not22 = icmp eq i32 %26, 0
  br i1 %.not22, label %29, label %27

27:                                               ; preds = %25
  %28 = tail call ptr @__errno_location() #8
  store i32 %26, ptr %28, align 4
  call void (ptr, ...) @fatal(ptr noundef nonnull @.str.17, ptr noundef nonnull @__func__.acct_gather_interconnect_startpoll) #9
  unreachable

29:                                               ; preds = %25
  %30 = call i32 @pthread_attr_destroy(ptr noundef nonnull %2) #7
  %.not23 = icmp eq i32 %30, 0
  br i1 %.not23, label %34, label %31

31:                                               ; preds = %29
  %32 = tail call ptr @__errno_location() #8
  store i32 %30, ptr %32, align 4
  %33 = call i32 (ptr, ...) @error(ptr noundef nonnull @.str.18) #7
  br label %34

34:                                               ; preds = %31, %29
  call void @llvm.lifetime.end.p0(i64 56, ptr nonnull %2) #7
  %35 = call i32 @get_log_level() #7
  %36 = icmp sgt i32 %35, 6
  br i1 %36, label %37, label %38

37:                                               ; preds = %34
  call void (i32, ptr, ...) @log_var(i32 noundef 7, ptr noundef nonnull @.str.19, ptr noundef nonnull @__func__.acct_gather_interconnect_startpoll) #7
  br label %38

38:                                               ; preds = %34, %37, %7, %10, %3
  ret i32 0
}